; ModuleID = 'source-C-CXX/24/47.cpp'
source_filename = "source-C-CXX/24/47.cpp"
target datalayout = "e-m:e-p270:32:32-p271:32:32-p272:64:64-i64:64-f80:128-n8:16:32:64-S128"
target triple = "x86_64-pc-linux-gnu"

%"class.std::ios_base::Init" = type { i8 }
%"class.std::basic_istream" = type { i32 (...)**, i64, %"class.std::basic_ios" }
%"class.std::basic_ios" = type { %"class.std::ios_base", %"class.std::basic_ostream"*, i8, i8, %"class.std::basic_streambuf"*, %"class.std::ctype"*, %"class.std::num_put"*, %"class.std::num_get"* }
%"class.std::ios_base" = type { i32 (...)**, i64, i64, i32, i32, i32, %"struct.std::ios_base::_Callback_list"*, %"struct.std::ios_base::_Words", [8 x %"struct.std::ios_base::_Words"], i32, %"struct.std::ios_base::_Words"*, %"class.std::locale" }
%"struct.std::ios_base::_Callback_list" = type { %"struct.std::ios_base::_Callback_list"*, void (i32, %"class.std::ios_base"*, i32)*, i32, i32 }
%"struct.std::ios_base::_Words" = type { i8*, i64 }
%"class.std::locale" = type { %"class.std::locale::_Impl"* }
%"class.std::locale::_Impl" = type { i32, %"class.std::locale::facet"**, i64, %"class.std::locale::facet"**, i8** }
%"class.std::locale::facet" = type <{ i32 (...)**, i32, [4 x i8] }>
%"class.std::basic_ostream" = type { i32 (...)**, %"class.std::basic_ios" }
%"class.std::basic_streambuf" = type { i32 (...)**, i8*, i8*, i8*, i8*, i8*, i8*, %"class.std::locale" }
%"class.std::ctype" = type <{ %"class.std::locale::facet.base", [4 x i8], %struct.__locale_struct*, i8, [7 x i8], i32*, i32*, i16*, i8, [256 x i8], [256 x i8], i8, [6 x i8] }>
%"class.std::locale::facet.base" = type <{ i32 (...)**, i32 }>
%struct.__locale_struct = type { [13 x %struct.__locale_data*], i16*, i32*, i32*, [13 x i8*] }
%struct.__locale_data = type opaque
%"class.std::num_put" = type { %"class.std::locale::facet.base", [4 x i8] }
%"class.std::num_get" = type { %"class.std::locale::facet.base", [4 x i8] }

@_ZStL8__ioinit = internal global %"class.std::ios_base::Init" zeroinitializer, align 1
@__dso_handle = external hidden global i8
@_ZSt3cin = external global %"class.std::basic_istream", align 8
@_ZSt4cout = external global %"class.std::basic_ostream", align 8
@llvm.global_ctors = appending global [1 x { i32, void ()*, i8* }] [{ i32, void ()*, i8* } { i32 65535, void ()* @_GLOBAL__sub_I_47.cpp, i8* null }]

declare void @_ZNSt8ios_base4InitC1Ev(%"class.std::ios_base::Init"* nonnull align 1 dereferenceable(1)) unnamed_addr #0

; Function Attrs: nounwind
declare void @_ZNSt8ios_base4InitD1Ev(%"class.std::ios_base::Init"* nonnull align 1 dereferenceable(1)) unnamed_addr #1

; Function Attrs: nofree nounwind
declare i32 @__cxa_atexit(void (i8*)*, i8*, i8*) local_unnamed_addr #2

; Function Attrs: mustprogress norecurse sspstrong uwtable
define dso_local i32 @main() local_unnamed_addr #3 {
  %1 = alloca i32, align 4
  %2 = alloca [1000 x i32], align 16
  %3 = bitcast i32* %1 to i8*
  call void @llvm.lifetime.start.p0i8(i64 4, i8* nonnull %3) #8
  %4 = bitcast [1000 x i32]* %2 to i8*
  call void @llvm.lifetime.start.p0i8(i64 4000, i8* nonnull %4) #8
  %5 = getelementptr inbounds [1000 x i32], [1000 x i32]* %2, i64 0, i64 0
  call void @llvm.memset.p0i8.i64(i8* noundef nonnull align 16 dereferenceable(4000) %4, i8 0, i64 4000, i1 false)
  store i32 1, i32* %5, align 16, !tbaa !5
  %6 = call nonnull align 8 dereferenceable(16) %"class.std::basic_istream"* @_ZNSirsERi(%"class.std::basic_istream"* nonnull align 8 dereferenceable(16) @_ZSt3cin, i32* nonnull align 4 dereferenceable(4) %1)
  %7 = load i32, i32* %1, align 4, !tbaa !5
  %8 = icmp sgt i32 %7, 0
  br i1 %8, label %9, label %95

9:                                                ; preds = %0
  %10 = zext i32 %7 to i64
  %11 = and i64 %10, 4294967288
  %12 = add nsw i64 %11, -8
  %13 = lshr exact i64 %12, 3
  %14 = add nuw nsw i64 %13, 1
  %15 = icmp ult i32 %7, 8
  %16 = and i64 %10, 4294967288
  %17 = and i64 %14, 1
  %18 = icmp eq i64 %12, 0
  %19 = and i64 %14, 4611686018427387902
  %20 = icmp eq i64 %17, 0
  %21 = icmp eq i64 %16, %10
  br label %22

22:                                               ; preds = %9, %92
  %23 = phi i32 [ %93, %92 ], [ 0, %9 ]
  br i1 %15, label %66, label %24

24:                                               ; preds = %22
  br i1 %18, label %52, label %25

25:                                               ; preds = %24, %25
  %26 = phi i64 [ %49, %25 ], [ 0, %24 ]
  %27 = phi i64 [ %50, %25 ], [ %19, %24 ]
  %28 = getelementptr inbounds [1000 x i32], [1000 x i32]* %2, i64 0, i64 %26
  %29 = bitcast i32* %28 to <4 x i32>*
  %30 = load <4 x i32>, <4 x i32>* %29, align 16, !tbaa !5
  %31 = getelementptr inbounds i32, i32* %28, i64 4
  %32 = bitcast i32* %31 to <4 x i32>*
  %33 = load <4 x i32>, <4 x i32>* %32, align 16, !tbaa !5
  %34 = shl nsw <4 x i32> %30, <i32 1, i32 1, i32 1, i32 1>
  %35 = shl nsw <4 x i32> %33, <i32 1, i32 1, i32 1, i32 1>
  %36 = bitcast i32* %28 to <4 x i32>*
  store <4 x i32> %34, <4 x i32>* %36, align 16, !tbaa !5
  %37 = bitcast i32* %31 to <4 x i32>*
  store <4 x i32> %35, <4 x i32>* %37, align 16, !tbaa !5
  %38 = or i64 %26, 8
  %39 = getelementptr inbounds [1000 x i32], [1000 x i32]* %2, i64 0, i64 %38
  %40 = bitcast i32* %39 to <4 x i32>*
  %41 = load <4 x i32>, <4 x i32>* %40, align 16, !tbaa !5
  %42 = getelementptr inbounds i32, i32* %39, i64 4
  %43 = bitcast i32* %42 to <4 x i32>*
  %44 = load <4 x i32>, <4 x i32>* %43, align 16, !tbaa !5
  %45 = shl nsw <4 x i32> %41, <i32 1, i32 1, i32 1, i32 1>
  %46 = shl nsw <4 x i32> %44, <i32 1, i32 1, i32 1, i32 1>
  %47 = bitcast i32* %39 to <4 x i32>*
  store <4 x i32> %45, <4 x i32>* %47, align 16, !tbaa !5
  %48 = bitcast i32* %42 to <4 x i32>*
  store <4 x i32> %46, <4 x i32>* %48, align 16, !tbaa !5
  %49 = add nuw i64 %26, 16
  %50 = add i64 %27, -2
  %51 = icmp eq i64 %50, 0
  br i1 %51, label %52, label %25, !llvm.loop !9

52:                                               ; preds = %25, %24
  %53 = phi i64 [ 0, %24 ], [ %49, %25 ]
  br i1 %20, label %65, label %54

54:                                               ; preds = %52
  %55 = getelementptr inbounds [1000 x i32], [1000 x i32]* %2, i64 0, i64 %53
  %56 = bitcast i32* %55 to <4 x i32>*
  %57 = load <4 x i32>, <4 x i32>* %56, align 16, !tbaa !5
  %58 = getelementptr inbounds i32, i32* %55, i64 4
  %59 = bitcast i32* %58 to <4 x i32>*
  %60 = load <4 x i32>, <4 x i32>* %59, align 16, !tbaa !5
  %61 = shl nsw <4 x i32> %57, <i32 1, i32 1, i32 1, i32 1>
  %62 = shl nsw <4 x i32> %60, <i32 1, i32 1, i32 1, i32 1>
  %63 = bitcast i32* %55 to <4 x i32>*
  store <4 x i32> %61, <4 x i32>* %63, align 16, !tbaa !5
  %64 = bitcast i32* %58 to <4 x i32>*
  store <4 x i32> %62, <4 x i32>* %64, align 16, !tbaa !5
  br label %65

65:                                               ; preds = %52, %54
  br i1 %21, label %68, label %66

66:                                               ; preds = %22, %65
  %67 = phi i64 [ 0, %22 ], [ %16, %65 ]
  br label %85

68:                                               ; preds = %85, %65
  br label %69

69:                                               ; preds = %68, %82
  %70 = phi i64 [ %83, %82 ], [ 0, %68 ]
  %71 = getelementptr inbounds [1000 x i32], [1000 x i32]* %2, i64 0, i64 %70
  %72 = load i32, i32* %71, align 4, !tbaa !5
  %73 = icmp sgt i32 %72, 9
  br i1 %73, label %76, label %74

74:                                               ; preds = %69
  %75 = add nuw nsw i64 %70, 1
  br label %82

76:                                               ; preds = %69
  %77 = urem i32 %72, 10
  store i32 %77, i32* %71, align 4, !tbaa !5
  %78 = add nuw nsw i64 %70, 1
  %79 = getelementptr inbounds [1000 x i32], [1000 x i32]* %2, i64 0, i64 %78
  %80 = load i32, i32* %79, align 4, !tbaa !5
  %81 = add nsw i32 %80, 1
  store i32 %81, i32* %79, align 4, !tbaa !5
  br label %82

82:                                               ; preds = %74, %76
  %83 = phi i64 [ %75, %74 ], [ %78, %76 ]
  %84 = icmp eq i64 %83, %10
  br i1 %84, label %92, label %69, !llvm.loop !12

85:                                               ; preds = %66, %85
  %86 = phi i64 [ %90, %85 ], [ %67, %66 ]
  %87 = getelementptr inbounds [1000 x i32], [1000 x i32]* %2, i64 0, i64 %86
  %88 = load i32, i32* %87, align 4, !tbaa !5
  %89 = shl nsw i32 %88, 1
  store i32 %89, i32* %87, align 4, !tbaa !5
  %90 = add nuw nsw i64 %86, 1
  %91 = icmp eq i64 %90, %10
  br i1 %91, label %68, label %85, !llvm.loop !13

92:                                               ; preds = %82
  %93 = add nuw nsw i32 %23, 1
  %94 = icmp eq i32 %93, %7
  br i1 %94, label %95, label %22, !llvm.loop !15

95:                                               ; preds = %92, %0
  %96 = icmp sgt i32 %7, -1
  br i1 %96, label %97, label %115

97:                                               ; preds = %95, %103
  %98 = phi i32 [ %104, %103 ], [ %7, %95 ]
  %99 = zext i32 %98 to i64
  %100 = getelementptr inbounds [1000 x i32], [1000 x i32]* %2, i64 0, i64 %99
  %101 = load i32, i32* %100, align 4, !tbaa !5
  %102 = icmp eq i32 %101, 0
  br i1 %102, label %103, label %106

103:                                              ; preds = %97
  %104 = add nsw i32 %98, -1
  %105 = icmp sgt i32 %98, 0
  br i1 %105, label %97, label %115, !llvm.loop !16

106:                                              ; preds = %97
  %107 = zext i32 %98 to i64
  br label %108

108:                                              ; preds = %106, %108
  %109 = phi i64 [ %107, %106 ], [ %114, %108 ]
  %110 = getelementptr inbounds [1000 x i32], [1000 x i32]* %2, i64 0, i64 %109
  %111 = load i32, i32* %110, align 4, !tbaa !5
  %112 = call nonnull align 8 dereferenceable(8) %"class.std::basic_ostream"* @_ZNSolsEi(%"class.std::basic_ostream"* nonnull align 8 dereferenceable(8) @_ZSt4cout, i32 %111)
  %113 = icmp sgt i64 %109, 0
  %114 = add nsw i64 %109, -1
  br i1 %113, label %108, label %115, !llvm.loop !17

115:                                              ; preds = %103, %108, %95
  %116 = load i8*, i8** bitcast (%"class.std::basic_ostream"* @_ZSt4cout to i8**), align 8, !tbaa !18
  %117 = getelementptr i8, i8* %116, i64 -24
  %118 = bitcast i8* %117 to i64*
  %119 = load i64, i64* %118, align 8
  %120 = add nsw i64 %119, 240
  %121 = getelementptr inbounds i8, i8* bitcast (%"class.std::basic_ostream"* @_ZSt4cout to i8*), i64 %120
  %122 = bitcast i8* %121 to %"class.std::ctype"**
  %123 = load %"class.std::ctype"*, %"class.std::ctype"** %122, align 8, !tbaa !20
  %124 = icmp eq %"class.std::ctype"* %123, null
  br i1 %124, label %125, label %126

125:                                              ; preds = %115
  call void @_ZSt16__throw_bad_castv() #9
  unreachable

126:                                              ; preds = %115
  %127 = getelementptr inbounds %"class.std::ctype", %"class.std::ctype"* %123, i64 0, i32 8
  %128 = load i8, i8* %127, align 8, !tbaa !24
  %129 = icmp eq i8 %128, 0
  br i1 %129, label %133, label %130

130:                                              ; preds = %126
  %131 = getelementptr inbounds %"class.std::ctype", %"class.std::ctype"* %123, i64 0, i32 9, i64 10
  %132 = load i8, i8* %131, align 1, !tbaa !26
  br label %139

133:                                              ; preds = %126
  call void @_ZNKSt5ctypeIcE13_M_widen_initEv(%"class.std::ctype"* nonnull align 8 dereferenceable(570) %123)
  %134 = bitcast %"class.std::ctype"* %123 to i8 (%"class.std::ctype"*, i8)***
  %135 = load i8 (%"class.std::ctype"*, i8)**, i8 (%"class.std::ctype"*, i8)*** %134, align 8, !tbaa !18
  %136 = getelementptr inbounds i8 (%"class.std::ctype"*, i8)*, i8 (%"class.std::ctype"*, i8)** %135, i64 6
  %137 = load i8 (%"class.std::ctype"*, i8)*, i8 (%"class.std::ctype"*, i8)** %136, align 8
  %138 = call signext i8 %137(%"class.std::ctype"* nonnull align 8 dereferenceable(570) %123, i8 signext 10)
  br label %139

139:                                              ; preds = %130, %133
  %140 = phi i8 [ %132, %130 ], [ %138, %133 ]
  %141 = call nonnull align 8 dereferenceable(8) %"class.std::basic_ostream"* @_ZNSo3putEc(%"class.std::basic_ostream"* nonnull align 8 dereferenceable(8) @_ZSt4cout, i8 signext %140)
  %142 = call nonnull align 8 dereferenceable(8) %"class.std::basic_ostream"* @_ZNSo5flushEv(%"class.std::basic_ostream"* nonnull align 8 dereferenceable(8) %141)
  call void @llvm.lifetime.end.p0i8(i64 4000, i8* nonnull %4) #8
  call void @llvm.lifetime.end.p0i8(i64 4, i8* nonnull %3) #8
  ret i32 0
}

; Function Attrs: argmemonly mustprogress nofree nosync nounwind willreturn
declare void @llvm.lifetime.start.p0i8(i64 immarg, i8* nocapture) #4

; Function Attrs: argmemonly mustprogress nofree nounwind willreturn writeonly
declare void @llvm.memset.p0i8.i64(i8* nocapture writeonly, i8, i64, i1 immarg) #5

declare nonnull align 8 dereferenceable(16) %"class.std::basic_istream"* @_ZNSirsERi(%"class.std::basic_istream"* nonnull align 8 dereferenceable(16), i32* nonnull align 4 dereferenceable(4)) local_unnamed_addr #0

; Function Attrs: argmemonly mustprogress nofree nosync nounwind willreturn
declare void @llvm.lifetime.end.p0i8(i64 immarg, i8* nocapture) #4

declare nonnull align 8 dereferenceable(8) %"class.std::basic_ostream"* @_ZNSolsEi(%"class.std::basic_ostream"* nonnull align 8 dereferenceable(8), i32) local_unnamed_addr #0

declare nonnull align 8 dereferenceable(8) %"class.std::basic_ostream"* @_ZNSo3putEc(%"class.std::basic_ostream"* nonnull align 8 dereferenceable(8), i8 signext) local_unnamed_addr #0

declare nonnull align 8 dereferenceable(8) %"class.std::basic_ostream"* @_ZNSo5flushEv(%"class.std::basic_ostream"* nonnull align 8 dereferenceable(8)) local_unnamed_addr #0

; Function Attrs: noreturn
declare void @_ZSt16__throw_bad_castv() local_unnamed_addr #6

declare void @_ZNKSt5ctypeIcE13_M_widen_initEv(%"class.std::ctype"* nonnull align 8 dereferenceable(570)) local_unnamed_addr #0

; Function Attrs: sspstrong uwtable
define internal void @_GLOBAL__sub_I_47.cpp() #7 section ".text.startup" {
  tail call void @_ZNSt8ios_base4InitC1Ev(%"class.std::ios_base::Init"* nonnull align 1 dereferenceable(1) @_ZStL8__ioinit)
  %1 = tail call i32 @__cxa_atexit(void (i8*)* bitcast (void (%"class.std::ios_base::Init"*)* @_ZNSt8ios_base4InitD1Ev to void (i8*)*), i8* getelementptr inbounds (%"class.std::ios_base::Init", %"class.std::ios_base::Init"* @_ZStL8__ioinit, i64 0, i32 0), i8* nonnull @__dso_handle) #8
  ret void
}


!llvm.module.flags = !{!0, !1, !2, !3}
!llvm.ident = !{!4}

!0 = !{i32 1, !"wchar_size", i32 4}
!1 = !{i32 7, !"PIC Level", i32 2}
!2 = !{i32 7, !"PIE Level", i32 2}
!3 = !{i32 7, !"uwtable", i32 1}
!4 = !{!"clang version 13.0.0"}
!5 = !{!6, !6, i64 0}
!6 = !{!"int", !7, i64 0}
!7 = !{!"omnipotent char", !8, i64 0}
!8 = !{!"Simple C++ TBAA"}
!9 = distinct !{!9, !10, !11}
!10 = !{!"llvm.loop.mustprogress"}
!11 = !{!"llvm.loop.isvectorized", i32 1}
!12 = distinct !{!12, !10}
!13 = distinct !{!13, !10, !14, !11}
!14 = !{!"llvm.loop.unroll.runtime.disable"}
!15 = distinct !{!15, !10}
!16 = distinct !{!16, !10}
!17 = distinct !{!17, !10}
!18 = !{!19, !19, i64 0}
!19 = !{!"vtable pointer", !8, i64 0}
!20 = !{!21, !22, i64 240}
!21 = !{!"_ZTSSt9basic_iosIcSt11char_traitsIcEE", !22, i64 216, !7, i64 224, !23, i64 225, !22, i64 232, !22, i64 240, !22, i64 248, !22, i64 256}
!22 = !{!"any pointer", !7, i64 0}
!23 = !{!"bool", !7, i64 0}
!24 = !{!25, !7, i64 56}
!25 = !{!"_ZTSSt5ctypeIcE", !22, i64 16, !23, i64 24, !22, i64 32, !22, i64 40, !22, i64 48, !7, i64 56, !7, i64 57, !7, i64 313, !7, i64 569}
!26 = !{!7, !7, i64 0}
